target datalayout = "e-m:e-p270:32:32-p271:32:32-p272:64:64-i64:64-i128:128-f80:128-n8:16:32:64-S128"
target triple = "x86_64-pc-linux-gnu"

%struct._packet_info = type { ptr, ptr, i32, i32, %struct.nstime_t, %struct.nstime_t, %struct.nstime_t, i8, ptr, ptr, ptr, ptr, %struct._address, %struct._address, %struct._address, %struct._address, %struct._address, %struct._address, i32, ptr, i8, [3 x i8], %struct.anon, i32, i32, i32, i32, ptr, i8, ptr, ptr, i16, i16, i32, i32, i16, i32, i32, ptr, ptr, ptr, i8, i8, i16, i16, i16, i32, i16, i16, ptr, ptr, ptr, ptr, ptr, i32, i32 }
%struct.nstime_t = type { i64, i32 }
%struct._address = type { i32, i32, ptr, ptr }
%struct.anon = type { i8, [3 x i8] }

@hf_pcnfsd_auth_client = internal global i32 0, align 4
@hf_pcnfsd_auth_ident_obscure = internal global i32 0, align 4
@hf_pcnfsd_auth_ident_clear = internal global i32 0, align 4
@hf_pcnfsd_auth_password = internal global i32 0, align 4
@hf_pcnfsd_auth_password_obscure = internal global i32 0, align 4
@hf_pcnfsd_auth_password_clear = internal global i32 0, align 4
@hf_pcnfsd_comment = internal global i32 0, align 4
@ett_pcnfsd_auth_ident = internal global i32 0, align 4
@ett_pcnfsd_auth_password = internal global i32 0, align 4
@.str.72 = private unnamed_addr constant [21 x i8] c"Authentication Ident\00", align 1
@.str.73 = private unnamed_addr constant [8 x i8] c"<EMPTY>\00", align 1
@.str.74 = private unnamed_addr constant [25 x i8] c"Authentication Ident: %s\00", align 1
@.str.75 = private unnamed_addr constant [1 x i8] zeroinitializer, align 1
@.str.76 = private unnamed_addr constant [24 x i8] c"Authentication Password\00", align 1
@.str.77 = private unnamed_addr constant [28 x i8] c"Authentication Password: %s\00", align 1

; Function Attrs: null_pointer_is_valid sspstrong uwtable
define internal ptr @pcnfsd_decode_obscure(ptr noundef %0, ptr noundef %1, i32 noundef %2) #0 {
  %4 = alloca ptr, align 8
  %5 = alloca ptr, align 8
  %6 = alloca i32, align 4
  %7 = alloca ptr, align 8
  %8 = alloca ptr, align 8
  store ptr %0, ptr %4, align 8
  store ptr %1, ptr %5, align 8
  store i32 %2, ptr %6, align 4
  call void @llvm.lifetime.start.p0(i64 8, ptr %7) #5
  call void @llvm.lifetime.start.p0(i64 8, ptr %8) #5
  %9 = load ptr, ptr %4, align 8
  %10 = load i32, ptr %6, align 4
  %11 = sext i32 %10 to i64
  %12 = call noalias ptr @wmem_alloc(ptr noundef %9, i64 noundef %11) #7
  store ptr %12, ptr %7, align 8
  %13 = load ptr, ptr %7, align 8
  store ptr %13, ptr %8, align 8
  br label %14

14:                                               ; preds = %25, %3
  %15 = load i32, ptr %6, align 4
  %16 = icmp sgt i32 %15, 0
  br i1 %16, label %17, label %32

17:                                               ; preds = %14
  %18 = load ptr, ptr %5, align 8
  %19 = load i8, ptr %18, align 1
  %20 = sext i8 %19 to i32
  %21 = xor i32 %20, 91
  %22 = and i32 %21, 127
  %23 = trunc i32 %22 to i8
  %24 = load ptr, ptr %8, align 8
  store i8 %23, ptr %24, align 1
  br label %25

25:                                               ; preds = %17
  %26 = load i32, ptr %6, align 4
  %27 = add i32 %26, -1
  store i32 %27, ptr %6, align 4
  %28 = load ptr, ptr %5, align 8
  %29 = getelementptr i8, ptr %28, i32 1
  store ptr %29, ptr %5, align 8
  %30 = load ptr, ptr %8, align 8
  %31 = getelementptr i8, ptr %30, i32 1
  store ptr %31, ptr %8, align 8
  br label %14, !llvm.loop !8

32:                                               ; preds = %14
  %33 = load ptr, ptr %7, align 8
  call void @llvm.lifetime.end.p0(i64 8, ptr %8) #5
  call void @llvm.lifetime.end.p0(i64 8, ptr %7) #5
  ret ptr %33
}

; Function Attrs: null_pointer_is_valid sspstrong uwtable
define internal i32 @dissect_pcnfsd2_auth_call(ptr noundef %0, ptr noundef %1, ptr noundef %2, ptr noundef %3) #0 {
  %5 = alloca ptr, align 8
  %6 = alloca ptr, align 8
  %7 = alloca ptr, align 8
  %8 = alloca ptr, align 8
  %9 = alloca i32, align 4
  %10 = alloca ptr, align 8
  %11 = alloca ptr, align 8
  %12 = alloca ptr, align 8
  %13 = alloca ptr, align 8
  %14 = alloca ptr, align 8
  %15 = alloca ptr, align 8
  %16 = alloca ptr, align 8
  %17 = alloca i32, align 4
  store ptr %0, ptr %5, align 8
  store ptr %1, ptr %6, align 8
  store ptr %2, ptr %7, align 8
  store ptr %3, ptr %8, align 8
  call void @llvm.lifetime.start.p0(i64 4, ptr %9) #5
  call void @llvm.lifetime.start.p0(i64 8, ptr %10) #5
  store ptr null, ptr %10, align 8
  call void @llvm.lifetime.start.p0(i64 8, ptr %11) #5
  call void @llvm.lifetime.start.p0(i64 8, ptr %12) #5
  call void @llvm.lifetime.start.p0(i64 8, ptr %13) #5
  call void @llvm.lifetime.start.p0(i64 8, ptr %14) #5
  store ptr null, ptr %14, align 8
  call void @llvm.lifetime.start.p0(i64 8, ptr %15) #5
  store ptr null, ptr %15, align 8
  call void @llvm.lifetime.start.p0(i64 8, ptr %16) #5
  store ptr null, ptr %16, align 8
  call void @llvm.lifetime.start.p0(i64 4, ptr %17) #5
  store i32 0, ptr %17, align 4
  %18 = load ptr, ptr %5, align 8
  %19 = load ptr, ptr %7, align 8
  %20 = load i32, ptr @hf_pcnfsd_auth_client, align 4
  %21 = load i32, ptr %17, align 4
  %22 = call i32 @dissect_rpc_string(ptr noundef %18, ptr noundef %19, i32 noundef %20, i32 noundef %21, ptr noundef null)
  store i32 %22, ptr %17, align 4
  %23 = load ptr, ptr %7, align 8
  %24 = load ptr, ptr %5, align 8
  %25 = load i32, ptr %17, align 4
  %26 = load i32, ptr @ett_pcnfsd_auth_ident, align 4
  %27 = call ptr @proto_tree_add_subtree(ptr noundef %23, ptr noundef %24, i32 noundef %25, i32 noundef -1, i32 noundef %26, ptr noundef %12, ptr noundef @.str.72)
  store ptr %27, ptr %13, align 8
  %28 = load ptr, ptr %5, align 8
  %29 = load ptr, ptr %13, align 8
  %30 = load i32, ptr @hf_pcnfsd_auth_ident_obscure, align 4
  %31 = load i32, ptr %17, align 4
  %32 = call i32 @dissect_rpc_string(ptr noundef %28, ptr noundef %29, i32 noundef %30, i32 noundef %31, ptr noundef %10)
  store i32 %32, ptr %9, align 4
  %33 = load ptr, ptr %12, align 8
  %34 = load i32, ptr %9, align 4
  %35 = load i32, ptr %17, align 4
  %36 = sub i32 %34, %35
  call void @proto_item_set_len(ptr noundef %33, i32 noundef %36)
  %37 = load ptr, ptr %10, align 8
  %38 = icmp ne ptr %37, null
  br i1 %38, label %39, label %69

39:                                               ; preds = %4
  %40 = load ptr, ptr %10, align 8
  %41 = call i32 @strcmp(ptr noundef %40, ptr noundef @.str.73) #6
  %42 = icmp ne i32 %41, 0
  br i1 %42, label %43, label %52

43:                                               ; preds = %39
  %44 = load ptr, ptr %6, align 8
  %45 = getelementptr inbounds nuw %struct._packet_info, ptr %44, i32 0, i32 51
  %46 = load ptr, ptr %45, align 8
  %47 = load ptr, ptr %10, align 8
  %48 = load ptr, ptr %10, align 8
  %49 = call i64 @strlen(ptr noundef %48) #6
  %50 = trunc i64 %49 to i32
  %51 = call ptr @pcnfsd_decode_obscure(ptr noundef %46, ptr noundef %47, i32 noundef %50)
  store ptr %51, ptr %11, align 8
  br label %54

52:                                               ; preds = %39
  %53 = load ptr, ptr %10, align 8
  store ptr %53, ptr %11, align 8
  br label %54

54:                                               ; preds = %52, %43
  %55 = load ptr, ptr %13, align 8
  %56 = icmp ne ptr %55, null
  br i1 %56, label %57, label %68

57:                                               ; preds = %54
  %58 = load ptr, ptr %13, align 8
  %59 = load i32, ptr @hf_pcnfsd_auth_ident_clear, align 4
  %60 = load ptr, ptr %5, align 8
  %61 = load i32, ptr %17, align 4
  %62 = add i32 %61, 4
  %63 = load ptr, ptr %11, align 8
  %64 = call i64 @strlen(ptr noundef %63) #6
  %65 = trunc i64 %64 to i32
  %66 = load ptr, ptr %11, align 8
  %67 = call ptr @proto_tree_add_string(ptr noundef %58, i32 noundef %59, ptr noundef %60, i32 noundef %62, i32 noundef %65, ptr noundef %66)
  br label %68

68:                                               ; preds = %57, %54
  br label %69

69:                                               ; preds = %68, %4
  %70 = load ptr, ptr %12, align 8
  %71 = icmp ne ptr %70, null
  br i1 %71, label %72, label %75

72:                                               ; preds = %69
  %73 = load ptr, ptr %12, align 8
  %74 = load ptr, ptr %10, align 8
  call void (ptr, ptr, ...) @proto_item_set_text(ptr noundef %73, ptr noundef @.str.74, ptr noundef %74)
  br label %75

75:                                               ; preds = %72, %69
  %76 = load i32, ptr %9, align 4
  store i32 %76, ptr %17, align 4
  %77 = load ptr, ptr %7, align 8
  %78 = load i32, ptr @hf_pcnfsd_auth_password, align 4
  %79 = load ptr, ptr %5, align 8
  %80 = call ptr (ptr, i32, ptr, i32, i32, ptr, ptr, ...) @proto_tree_add_string_format(ptr noundef %77, i32 noundef %78, ptr noundef %79, i32 noundef 0, i32 noundef 0, ptr noundef @.str.75, ptr noundef @.str.76)
  store ptr %80, ptr %15, align 8
  %81 = load ptr, ptr %15, align 8
  %82 = load i32, ptr @ett_pcnfsd_auth_password, align 4
  %83 = call ptr @proto_item_add_subtree(ptr noundef %81, i32 noundef %82)
  store ptr %83, ptr %16, align 8
  %84 = load ptr, ptr %5, align 8
  %85 = load ptr, ptr %16, align 8
  %86 = load i32, ptr @hf_pcnfsd_auth_password_obscure, align 4
  %87 = load i32, ptr %17, align 4
  %88 = call i32 @dissect_rpc_string(ptr noundef %84, ptr noundef %85, i32 noundef %86, i32 noundef %87, ptr noundef %14)
  store i32 %88, ptr %9, align 4
  %89 = load ptr, ptr %15, align 8
  %90 = icmp ne ptr %89, null
  br i1 %90, label %91, label %96

91:                                               ; preds = %75
  %92 = load ptr, ptr %15, align 8
  %93 = load i32, ptr %9, align 4
  %94 = load i32, ptr %17, align 4
  %95 = sub i32 %93, %94
  call void @proto_item_set_len(ptr noundef %92, i32 noundef %95)
  br label %96

96:                                               ; preds = %91, %75
  %97 = load ptr, ptr %14, align 8
  %98 = icmp ne ptr %97, null
  br i1 %98, label %99, label %127

99:                                               ; preds = %96
  %100 = load ptr, ptr %14, align 8
  %101 = call i32 @strcmp(ptr noundef %100, ptr noundef @.str.73) #6
  %102 = icmp ne i32 %101, 0
  br i1 %102, label %103, label %112

103:                                              ; preds = %99
  %104 = load ptr, ptr %6, align 8
  %105 = getelementptr inbounds nuw %struct._packet_info, ptr %104, i32 0, i32 51
  %106 = load ptr, ptr %105, align 8
  %107 = load ptr, ptr %14, align 8
  %108 = load ptr, ptr %14, align 8
  %109 = call i64 @strlen(ptr noundef %108) #6
  %110 = trunc i64 %109 to i32
  %111 = call ptr @pcnfsd_decode_obscure(ptr noundef %106, ptr noundef %107, i32 noundef %110)
  br label %112

112:                                              ; preds = %103, %99
  %113 = load ptr, ptr %16, align 8
  %114 = icmp ne ptr %113, null
  br i1 %114, label %115, label %126

115:                                              ; preds = %112
  %116 = load ptr, ptr %16, align 8
  %117 = load i32, ptr @hf_pcnfsd_auth_password_clear, align 4
  %118 = load ptr, ptr %5, align 8
  %119 = load i32, ptr %17, align 4
  %120 = add i32 %119, 4
  %121 = load ptr, ptr %14, align 8
  %122 = call i64 @strlen(ptr noundef %121) #6
  %123 = trunc i64 %122 to i32
  %124 = load ptr, ptr %14, align 8
  %125 = call ptr @proto_tree_add_string(ptr noundef %116, i32 noundef %117, ptr noundef %118, i32 noundef %120, i32 noundef %123, ptr noundef %124)
  br label %126

126:                                              ; preds = %115, %112
  br label %127

127:                                              ; preds = %126, %96
  %128 = load ptr, ptr %15, align 8
  %129 = icmp ne ptr %128, null
  br i1 %129, label %130, label %133

130:                                              ; preds = %127
  %131 = load ptr, ptr %15, align 8
  %132 = load ptr, ptr %14, align 8
  call void (ptr, ptr, ...) @proto_item_set_text(ptr noundef %131, ptr noundef @.str.77, ptr noundef %132)
  br label %133

133:                                              ; preds = %130, %127
  %134 = load i32, ptr %9, align 4
  store i32 %134, ptr %17, align 4
  %135 = load ptr, ptr %5, align 8
  %136 = load ptr, ptr %7, align 8
  %137 = load i32, ptr @hf_pcnfsd_comment, align 4
  %138 = load i32, ptr %17, align 4
  %139 = call i32 @dissect_rpc_string(ptr noundef %135, ptr noundef %136, i32 noundef %137, i32 noundef %138, ptr noundef null)
  store i32 %139, ptr %17, align 4
  %140 = load i32, ptr %17, align 4
  call void @llvm.lifetime.end.p0(i64 4, ptr %17) #5
  call void @llvm.lifetime.end.p0(i64 8, ptr %16) #5
  call void @llvm.lifetime.end.p0(i64 8, ptr %15) #5
  call void @llvm.lifetime.end.p0(i64 8, ptr %14) #5
  call void @llvm.lifetime.end.p0(i64 8, ptr %13) #5
  call void @llvm.lifetime.end.p0(i64 8, ptr %12) #5
  call void @llvm.lifetime.end.p0(i64 8, ptr %11) #5
  call void @llvm.lifetime.end.p0(i64 8, ptr %10) #5
  call void @llvm.lifetime.end.p0(i64 4, ptr %9) #5
  ret i32 %140
}