; Function Attrs: null_pointer_is_valid sspstrong uwtable
define internal i32 @dissect_pcnfsd2_auth_call(ptr noundef %0, ptr noundef readonly captures(none) %1, ptr noundef %2, ptr readnone captures(none) %3) #0 {
  %5 = alloca ptr, align 8
  %6 = alloca ptr, align 8
  %7 = alloca ptr, align 8
  call void @llvm.lifetime.start.p0(i64 8, ptr nonnull %5) #5
  store ptr null, ptr %5, align 8
  call void @llvm.lifetime.start.p0(i64 8, ptr nonnull %6) #5
  call void @llvm.lifetime.start.p0(i64 8, ptr nonnull %7) #5
  store ptr null, ptr %7, align 8
  %8 = load i32, ptr @hf_pcnfsd_auth_client, align 4
  %9 = tail call i32 @dissect_rpc_string(ptr noundef %0, ptr noundef %2, i32 noundef %8, i32 noundef 0, ptr noundef null)
  %10 = load i32, ptr @ett_pcnfsd_auth_ident, align 4
  %11 = call ptr @proto_tree_add_subtree(ptr noundef %2, ptr noundef %0, i32 noundef %9, i32 noundef -1, i32 noundef %10, ptr noundef nonnull %6, ptr noundef nonnull @.str.72)
  %12 = load i32, ptr @hf_pcnfsd_auth_ident_obscure, align 4
  %13 = call i32 @dissect_rpc_string(ptr noundef %0, ptr noundef %11, i32 noundef %12, i32 noundef %9, ptr noundef nonnull %5)
  %14 = load ptr, ptr %6, align 8
  %15 = sub i32 %13, %9
  call void @proto_item_set_len(ptr noundef %14, i32 noundef %15)
  %16 = load ptr, ptr %5, align 8
  %.not = icmp eq ptr %16, null
  br i1 %.not, label %40, label %17

17:                                               ; preds = %4
  %18 = call i32 @strcmp(ptr noundef nonnull dereferenceable(1) %16, ptr noundef nonnull dereferenceable(8) @.str.73) #6
  %.not46 = icmp eq i32 %18, 0
  br i1 %.not46, label %pcnfsd_decode_obscure.exit, label %19

19:                                               ; preds = %17
  %20 = getelementptr inbounds nuw i8, ptr %1, i64 408
  %21 = load ptr, ptr %20, align 8
  %22 = call i64 @strlen(ptr noundef nonnull dereferenceable(1) %16) #6
  %23 = trunc i64 %22 to i32
  %sext = shl i64 %22, 32
  %24 = ashr exact i64 %sext, 32
  %25 = call noalias ptr @wmem_alloc(ptr noundef %21, i64 noundef %24) #7
  %26 = icmp sgt i32 %23, 0
  br i1 %26, label %.lr.ph.i, label %pcnfsd_decode_obscure.exit

.lr.ph.i:                                         ; preds = %19, %.lr.ph.i
  %.013.i = phi ptr [ %32, %.lr.ph.i ], [ %25, %19 ]
  %.0912.i = phi ptr [ %31, %.lr.ph.i ], [ %16, %19 ]
  %.01011.i = phi i32 [ %30, %.lr.ph.i ], [ %23, %19 ]
  %27 = load i8, ptr %.0912.i, align 1
  %28 = and i8 %27, 127
  %29 = xor i8 %28, 91
  store i8 %29, ptr %.013.i, align 1
  %30 = add nsw i32 %.01011.i, -1
  %31 = getelementptr i8, ptr %.0912.i, i64 1
  %32 = getelementptr i8, ptr %.013.i, i64 1
  %33 = icmp samesign ugt i32 %.01011.i, 1
  br i1 %33, label %.lr.ph.i, label %pcnfsd_decode_obscure.exit, !llvm.loop !6

pcnfsd_decode_obscure.exit:                       ; preds = %.lr.ph.i, %19, %17
  %.0 = phi ptr [ %16, %17 ], [ %25, %19 ], [ %25, %.lr.ph.i ]
  %.not47 = icmp eq ptr %11, null
  br i1 %.not47, label %40, label %34

34:                                               ; preds = %pcnfsd_decode_obscure.exit
  %35 = load i32, ptr @hf_pcnfsd_auth_ident_clear, align 4
  %36 = add i32 %9, 4
  %37 = call i64 @strlen(ptr noundef %.0) #6
  %38 = trunc i64 %37 to i32
  %39 = call ptr @proto_tree_add_string(ptr noundef nonnull %11, i32 noundef %35, ptr noundef %0, i32 noundef %36, i32 noundef %38, ptr noundef %.0)
  br label %40

40:                                               ; preds = %pcnfsd_decode_obscure.exit, %34, %4
  %41 = load ptr, ptr %6, align 8
  %.not48 = icmp eq ptr %41, null
  br i1 %.not48, label %44, label %42

42:                                               ; preds = %40
  %43 = load ptr, ptr %5, align 8
  call void (ptr, ptr, ...) @proto_item_set_text(ptr noundef nonnull %41, ptr noundef nonnull @.str.74, ptr noundef %43)
  br label %44

44:                                               ; preds = %42, %40
  %45 = load i32, ptr @hf_pcnfsd_auth_password, align 4
  %46 = call ptr (ptr, i32, ptr, i32, i32, ptr, ptr, ...) @proto_tree_add_string_format(ptr noundef %2, i32 noundef %45, ptr noundef %0, i32 noundef 0, i32 noundef 0, ptr noundef nonnull @.str.75, ptr noundef nonnull @.str.76)
  %47 = load i32, ptr @ett_pcnfsd_auth_password, align 4
  %48 = call ptr @proto_item_add_subtree(ptr noundef %46, i32 noundef %47)
  %49 = load i32, ptr @hf_pcnfsd_auth_password_obscure, align 4
  %50 = call i32 @dissect_rpc_string(ptr noundef %0, ptr noundef %48, i32 noundef %49, i32 noundef %13, ptr noundef nonnull %7)
  %.not49 = icmp eq ptr %46, null
  br i1 %.not49, label %53, label %51

51:                                               ; preds = %44
  %52 = sub i32 %50, %13
  call void @proto_item_set_len(ptr noundef nonnull %46, i32 noundef %52)
  br label %53

53:                                               ; preds = %51, %44
  %54 = load ptr, ptr %7, align 8
  %.not50 = icmp eq ptr %54, null
  br i1 %.not50, label %79, label %55

55:                                               ; preds = %53
  %56 = call i32 @strcmp(ptr noundef nonnull dereferenceable(1) %54, ptr noundef nonnull dereferenceable(8) @.str.73) #6
  %.not51 = icmp eq i32 %56, 0
  br i1 %.not51, label %pcnfsd_decode_obscure.exit57, label %57

57:                                               ; preds = %55
  %58 = getelementptr inbounds nuw i8, ptr %1, i64 408
  %59 = load ptr, ptr %58, align 8
  %60 = call i64 @strlen(ptr noundef nonnull dereferenceable(1) %54) #6
  %61 = trunc i64 %60 to i32
  %sext58 = shl i64 %60, 32
  %62 = ashr exact i64 %sext58, 32
  %63 = call noalias ptr @wmem_alloc(ptr noundef %59, i64 noundef %62) #7
  %64 = icmp sgt i32 %61, 0
  br i1 %64, label %.lr.ph.i53, label %pcnfsd_decode_obscure.exit57

.lr.ph.i53:                                       ; preds = %57, %.lr.ph.i53
  %.013.i54 = phi ptr [ %70, %.lr.ph.i53 ], [ %63, %57 ]
  %.0912.i55 = phi ptr [ %69, %.lr.ph.i53 ], [ %54, %57 ]
  %.01011.i56 = phi i32 [ %68, %.lr.ph.i53 ], [ %61, %57 ]
  %65 = load i8, ptr %.0912.i55, align 1
  %66 = and i8 %65, 127
  %67 = xor i8 %66, 91
  store i8 %67, ptr %.013.i54, align 1
  %68 = add nsw i32 %.01011.i56, -1
  %69 = getelementptr i8, ptr %.0912.i55, i64 1
  %70 = getelementptr i8, ptr %.013.i54, i64 1
  %71 = icmp samesign ugt i32 %.01011.i56, 1
  br i1 %71, label %.lr.ph.i53, label %pcnfsd_decode_obscure.exit57, !llvm.loop !6

pcnfsd_decode_obscure.exit57:                     ; preds = %.lr.ph.i53, %57, %55
  %.not52 = icmp eq ptr %48, null
  br i1 %.not52, label %79, label %72

72:                                               ; preds = %pcnfsd_decode_obscure.exit57
  %73 = load i32, ptr @hf_pcnfsd_auth_password_clear, align 4
  %74 = add i32 %13, 4
  %75 = load ptr, ptr %7, align 8
  %76 = call i64 @strlen(ptr noundef %75) #6
  %77 = trunc i64 %76 to i32
  %78 = call ptr @proto_tree_add_string(ptr noundef nonnull %48, i32 noundef %73, ptr noundef %0, i32 noundef %74, i32 noundef %77, ptr noundef %75)
  br label %79

79:                                               ; preds = %pcnfsd_decode_obscure.exit57, %72, %53
  br i1 %.not49, label %82, label %80

80:                                               ; preds = %79
  %81 = load ptr, ptr %7, align 8
  call void (ptr, ptr, ...) @proto_item_set_text(ptr noundef nonnull %46, ptr noundef nonnull @.str.77, ptr noundef %81)
  br label %82

82:                                               ; preds = %80, %79
  %83 = load i32, ptr @hf_pcnfsd_comment, align 4
  %84 = call i32 @dissect_rpc_string(ptr noundef %0, ptr noundef %2, i32 noundef %83, i32 noundef %50, ptr noundef null)
  call void @llvm.lifetime.end.p0(i64 8, ptr nonnull %7) #5
  call void @llvm.lifetime.end.p0(i64 8, ptr nonnull %6) #5
  call void @llvm.lifetime.end.p0(i64 8, ptr nonnull %5) #5
  ret i32 %84
}